target datalayout = "e-m:e-p270:32:32-p271:32:32-p272:64:64-i64:64-i128:128-f80:128-n8:16:32:64-S128"
target triple = "x86_64-pc-linux-gnu"

%struct.job_descriptor = type { ptr, ptr, ptr, ptr, i16, i32, i32, ptr, ptr, ptr, ptr, i64, i64, ptr, ptr, ptr, ptr, i16, ptr, ptr, i16, ptr, i16, i32, i32, i32, ptr, ptr, i64, i32, ptr, i64, ptr, %struct.slurm_hash_t, i32, ptr, ptr, ptr, i64, i64, i32, i32, ptr, i16, i32, ptr, ptr, i16, ptr, ptr, i16, ptr, ptr, ptr, i16, ptr, ptr, ptr, i32, i32, i16, i8, ptr, i16, i8, ptr, i16, ptr, i32, i32, ptr, i16, ptr, i16, ptr, i16, ptr, i16, ptr, ptr, %struct.slurm_hash_t, i16, i32, ptr, i32, ptr, i32, i32, i32, ptr, ptr, ptr, ptr, ptr, ptr, i32, i16, i16, i16, i16, ptr, i16, i32, i32, i32, i32, i16, i16, i16, i16, i16, i16, i16, i16, i16, i16, i16, i64, i32, ptr, i32, i16, ptr, ptr, ptr, ptr, ptr, i32, ptr, i16, ptr, ptr, i16 }
%struct.slurm_hash_t = type { i8, [32 x i8] }

@.str = private unnamed_addr constant [12 x i8] c"PBS_ACCOUNT\00", align 1
@.str.1 = private unnamed_addr constant [10 x i8] c"PBS_QUEUE\00", align 1
@.str.2 = private unnamed_addr constant [13 x i8] c"slurm-%j.out\00", align 1
@.str.3 = private unnamed_addr constant [2 x i8] c",\00", align 1
@.str.4 = private unnamed_addr constant [8 x i8] c"stdout=\00", align 1
@.str.5 = private unnamed_addr constant [2 x i8] c"/\00", align 1
@.str.6 = private unnamed_addr constant [3 x i8] c"%j\00", align 1
@.str.7 = private unnamed_addr constant [3 x i8] c"%u\00", align 1
@.str.36 = private unnamed_addr constant [6 x i8] c"%s=%s\00", align 1
@.str.37 = private unnamed_addr constant [17 x i8] c"job_submit_pbs.c\00", align 1
@__func__._add_env = private unnamed_addr constant [9 x i8] c"_add_env\00", align 1

; Function Attrs: nounwind uwtable
define internal void @_add_env(ptr noundef %0, ptr noundef %1) #0 {
  %3 = alloca ptr, align 8
  %4 = alloca ptr, align 8
  store ptr %0, ptr %3, align 8
  store ptr %1, ptr %4, align 8
  %5 = load ptr, ptr %3, align 8
  %6 = getelementptr inbounds nuw %struct.job_descriptor, ptr %5, i32 0, i32 32
  %7 = load ptr, ptr %6, align 8
  %8 = icmp ne ptr %7, null
  br i1 %8, label %9, label %12

9:                                                ; preds = %2
  %10 = load ptr, ptr %4, align 8
  %11 = icmp ne ptr %10, null
  br i1 %11, label %13, label %12

12:                                               ; preds = %9, %2
  br label %37

13:                                               ; preds = %9
  %14 = load ptr, ptr %3, align 8
  %15 = getelementptr inbounds nuw %struct.job_descriptor, ptr %14, i32 0, i32 32
  %16 = load ptr, ptr %3, align 8
  %17 = getelementptr inbounds nuw %struct.job_descriptor, ptr %16, i32 0, i32 34
  %18 = load i32, ptr %17, align 4
  %19 = add i32 %18, 2
  %20 = zext i32 %19 to i64
  %21 = mul i64 8, %20
  %22 = call ptr @slurm_xrecalloc(ptr noundef %15, i64 noundef 1, i64 noundef %21, i1 noundef zeroext true, i1 noundef zeroext false, ptr noundef @.str.37, i32 noundef 104, ptr noundef @__func__._add_env)
  %23 = load ptr, ptr %4, align 8
  %24 = call ptr @slurm_xstrdup(ptr noundef %23)
  %25 = load ptr, ptr %3, align 8
  %26 = getelementptr inbounds nuw %struct.job_descriptor, ptr %25, i32 0, i32 32
  %27 = load ptr, ptr %26, align 8
  %28 = load ptr, ptr %3, align 8
  %29 = getelementptr inbounds nuw %struct.job_descriptor, ptr %28, i32 0, i32 34
  %30 = load i32, ptr %29, align 4
  %31 = zext i32 %30 to i64
  %32 = getelementptr inbounds nuw ptr, ptr %27, i64 %31
  store ptr %24, ptr %32, align 8
  %33 = load ptr, ptr %3, align 8
  %34 = getelementptr inbounds nuw %struct.job_descriptor, ptr %33, i32 0, i32 34
  %35 = load i32, ptr %34, align 4
  %36 = add i32 %35, 1
  store i32 %36, ptr %34, align 4
  br label %37

37:                                               ; preds = %13, %12
  ret void
}

; Function Attrs: nounwind uwtable
define internal void @_add_env2(ptr noundef %0, ptr noundef %1, ptr noundef %2) #0 {
  %4 = alloca ptr, align 8
  %5 = alloca ptr, align 8
  %6 = alloca ptr, align 8
  %7 = alloca ptr, align 8
  %8 = alloca i32, align 4
  store ptr %0, ptr %4, align 8
  store ptr %1, ptr %5, align 8
  store ptr %2, ptr %6, align 8
  call void @llvm.lifetime.start.p0(i64 8, ptr %7) #9
  store ptr null, ptr %7, align 8
  %9 = load ptr, ptr %4, align 8
  %10 = getelementptr inbounds nuw %struct.job_descriptor, ptr %9, i32 0, i32 32
  %11 = load ptr, ptr %10, align 8
  %12 = icmp ne ptr %11, null
  br i1 %12, label %13, label %19

13:                                               ; preds = %3
  %14 = load ptr, ptr %5, align 8
  %15 = icmp ne ptr %14, null
  br i1 %15, label %16, label %19

16:                                               ; preds = %13
  %17 = load ptr, ptr %6, align 8
  %18 = icmp ne ptr %17, null
  br i1 %18, label %20, label %19

19:                                               ; preds = %16, %13, %3
  store i32 1, ptr %8, align 4
  br label %25

20:                                               ; preds = %16
  %21 = load ptr, ptr %5, align 8
  %22 = load ptr, ptr %6, align 8
  call void (ptr, ptr, ...) @slurm_xstrfmtcat(ptr noundef %7, ptr noundef @.str.36, ptr noundef %21, ptr noundef %22)
  %23 = load ptr, ptr %4, align 8
  %24 = load ptr, ptr %7, align 8
  call void @_add_env(ptr noundef %23, ptr noundef %24)
  call void @slurm_xfree(ptr noundef %7)
  store i32 0, ptr %8, align 4
  br label %25

25:                                               ; preds = %20, %19
  call void @llvm.lifetime.end.p0(i64 8, ptr %7) #9
  %26 = load i32, ptr %8, align 4
  switch i32 %26, label %28 [
    i32 0, label %27
    i32 1, label %27
  ]

27:                                               ; preds = %25, %25
  ret void

28:                                               ; preds = %25
  unreachable
}

; Function Attrs: nounwind uwtable
define dso_local i32 @job_submit(ptr noundef %0, i32 noundef %1) #0 {
  %3 = alloca ptr, align 8
  %4 = alloca i32, align 4
  %5 = alloca ptr, align 8
  %6 = alloca ptr, align 8
  %7 = alloca i32, align 4
  %8 = alloca ptr, align 8
  %9 = alloca ptr, align 8
  store ptr %0, ptr %3, align 8
  store i32 %1, ptr %4, align 4
  call void @llvm.lifetime.start.p0(i64 8, ptr %5) #9
  call void @llvm.lifetime.start.p0(i64 8, ptr %6) #9
  call void @llvm.lifetime.start.p0(i64 4, ptr %7) #9
  %10 = call i32 @get_next_job_id(i1 noundef zeroext true)
  store i32 %10, ptr %7, align 4
  %11 = load ptr, ptr %3, align 8
  %12 = load i32, ptr %4, align 4
  %13 = load i32, ptr %7, align 4
  call void @_xlate_dependency(ptr noundef %11, i32 noundef %12, i32 noundef %13)
  %14 = load ptr, ptr %3, align 8
  %15 = getelementptr inbounds nuw %struct.job_descriptor, ptr %14, i32 0, i32 0
  %16 = load ptr, ptr %15, align 8
  %17 = icmp ne ptr %16, null
  br i1 %17, label %18, label %23

18:                                               ; preds = %2
  %19 = load ptr, ptr %3, align 8
  %20 = load ptr, ptr %3, align 8
  %21 = getelementptr inbounds nuw %struct.job_descriptor, ptr %20, i32 0, i32 0
  %22 = load ptr, ptr %21, align 8
  call void @_add_env2(ptr noundef %19, ptr noundef @.str, ptr noundef %22)
  br label %23

23:                                               ; preds = %18, %2
  %24 = load ptr, ptr %3, align 8
  %25 = getelementptr inbounds nuw %struct.job_descriptor, ptr %24, i32 0, i32 78
  %26 = load ptr, ptr %25, align 8
  %27 = icmp ne ptr %26, null
  br i1 %27, label %28, label %29

28:                                               ; preds = %23
  br label %30

29:                                               ; preds = %23
  br label %30

30:                                               ; preds = %29, %28
  %31 = load ptr, ptr %3, align 8
  %32 = getelementptr inbounds nuw %struct.job_descriptor, ptr %31, i32 0, i32 65
  %33 = load ptr, ptr %32, align 8
  %34 = icmp ne ptr %33, null
  br i1 %34, label %35, label %40

35:                                               ; preds = %30
  %36 = load ptr, ptr %3, align 8
  %37 = load ptr, ptr %3, align 8
  %38 = getelementptr inbounds nuw %struct.job_descriptor, ptr %37, i32 0, i32 65
  %39 = load ptr, ptr %38, align 8
  call void @_add_env2(ptr noundef %36, ptr noundef @.str.1, ptr noundef %39)
  br label %40

40:                                               ; preds = %35, %30
  %41 = load ptr, ptr %3, align 8
  %42 = getelementptr inbounds nuw %struct.job_descriptor, ptr %41, i32 0, i32 125
  %43 = load ptr, ptr %42, align 8
  %44 = icmp ne ptr %43, null
  br i1 %44, label %45, label %49

45:                                               ; preds = %40
  %46 = load ptr, ptr %3, align 8
  %47 = getelementptr inbounds nuw %struct.job_descriptor, ptr %46, i32 0, i32 125
  %48 = load ptr, ptr %47, align 8
  store ptr %48, ptr %5, align 8
  br label %50

49:                                               ; preds = %40
  store ptr @.str.2, ptr %5, align 8
  br label %50

50:                                               ; preds = %49, %45
  %51 = load ptr, ptr %3, align 8
  %52 = getelementptr inbounds nuw %struct.job_descriptor, ptr %51, i32 0, i32 16
  %53 = load ptr, ptr %52, align 8
  %54 = icmp ne ptr %53, null
  br i1 %54, label %55, label %58

55:                                               ; preds = %50
  %56 = load ptr, ptr %3, align 8
  %57 = getelementptr inbounds nuw %struct.job_descriptor, ptr %56, i32 0, i32 16
  call void @slurm_xstrcat(ptr noundef %57, ptr noundef @.str.3)
  br label %58

58:                                               ; preds = %55, %50
  %59 = load ptr, ptr %3, align 8
  %60 = getelementptr inbounds nuw %struct.job_descriptor, ptr %59, i32 0, i32 16
  call void @slurm_xstrcat(ptr noundef %60, ptr noundef @.str.4)
  %61 = load ptr, ptr %5, align 8
  %62 = icmp ne ptr %61, null
  br i1 %62, label %63, label %82

63:                                               ; preds = %58
  %64 = load ptr, ptr %5, align 8
  %65 = getelementptr inbounds i8, ptr %64, i64 0
  %66 = load i8, ptr %65, align 1
  %67 = sext i8 %66 to i32
  %68 = icmp ne i32 %67, 47
  br i1 %68, label %69, label %82

69:                                               ; preds = %63
  %70 = load ptr, ptr %3, align 8
  %71 = getelementptr inbounds nuw %struct.job_descriptor, ptr %70, i32 0, i32 100
  %72 = load ptr, ptr %71, align 8
  %73 = icmp ne ptr %72, null
  br i1 %73, label %74, label %82

74:                                               ; preds = %69
  %75 = load ptr, ptr %3, align 8
  %76 = getelementptr inbounds nuw %struct.job_descriptor, ptr %75, i32 0, i32 16
  %77 = load ptr, ptr %3, align 8
  %78 = getelementptr inbounds nuw %struct.job_descriptor, ptr %77, i32 0, i32 100
  %79 = load ptr, ptr %78, align 8
  call void @slurm_xstrcat(ptr noundef %76, ptr noundef %79)
  %80 = load ptr, ptr %3, align 8
  %81 = getelementptr inbounds nuw %struct.job_descriptor, ptr %80, i32 0, i32 16
  call void @slurm_xstrcat(ptr noundef %81, ptr noundef @.str.5)
  br label %82

82:                                               ; preds = %74, %69, %63, %58
  %83 = load ptr, ptr %5, align 8
  %84 = call ptr @strstr(ptr noundef %83, ptr noundef @.str.6) #10
  store ptr %84, ptr %6, align 8
  %85 = load ptr, ptr %6, align 8
  %86 = icmp ne ptr %85, null
  br i1 %86, label %87, label %100

87:                                               ; preds = %82
  call void @llvm.lifetime.start.p0(i64 8, ptr %8) #9
  call void @llvm.lifetime.start.p0(i64 8, ptr %9) #9
  %88 = load ptr, ptr %5, align 8
  %89 = call ptr @slurm_xstrdup(ptr noundef %88)
  store ptr %89, ptr %9, align 8
  %90 = load ptr, ptr %9, align 8
  %91 = call ptr @strstr(ptr noundef %90, ptr noundef @.str.6) #10
  store ptr %91, ptr %8, align 8
  %92 = load ptr, ptr %8, align 8
  %93 = getelementptr inbounds i8, ptr %92, i64 0
  store i8 0, ptr %93, align 1
  %94 = load i32, ptr %7, align 4
  call void (ptr, ptr, ...) @slurm_xstrfmtcat(ptr noundef %9, ptr noundef @.str.7, i32 noundef %94)
  %95 = load ptr, ptr %6, align 8
  %96 = getelementptr inbounds i8, ptr %95, i64 2
  call void @slurm_xstrcat(ptr noundef %9, ptr noundef %96)
  %97 = load ptr, ptr %3, align 8
  %98 = getelementptr inbounds nuw %struct.job_descriptor, ptr %97, i32 0, i32 16
  %99 = load ptr, ptr %9, align 8
  call void @slurm_xstrcat(ptr noundef %98, ptr noundef %99)
  call void @slurm_xfree(ptr noundef %9)
  call void @llvm.lifetime.end.p0(i64 8, ptr %9) #9
  call void @llvm.lifetime.end.p0(i64 8, ptr %8) #9
  br label %104

100:                                              ; preds = %82
  %101 = load ptr, ptr %3, align 8
  %102 = getelementptr inbounds nuw %struct.job_descriptor, ptr %101, i32 0, i32 16
  %103 = load ptr, ptr %5, align 8
  call void @slurm_xstrcat(ptr noundef %102, ptr noundef %103)
  br label %104

104:                                              ; preds = %100, %87
  call void @llvm.lifetime.end.p0(i64 4, ptr %7) #9
  call void @llvm.lifetime.end.p0(i64 8, ptr %6) #9
  call void @llvm.lifetime.end.p0(i64 8, ptr %5) #9
  ret i32 0
}