; Function Attrs: nounwind uwtable
define dso_local noundef i32 @job_submit(ptr noundef %0, i32 noundef %1) local_unnamed_addr #1 {
  %3 = alloca ptr, align 8
  %4 = alloca ptr, align 8
  %5 = alloca ptr, align 8
  %6 = tail call i32 @get_next_job_id(i1 noundef zeroext true) #12
  tail call fastcc void @_xlate_dependency(ptr noundef %0, i32 noundef %1, i32 noundef %6)
  %7 = load ptr, ptr %0, align 8
  %.not = icmp eq ptr %7, null
  br i1 %.not, label %30, label %8

8:                                                ; preds = %2
  call void @llvm.lifetime.start.p0(i64 8, ptr nonnull %4) #12
  store ptr null, ptr %4, align 8
  %9 = getelementptr inbounds nuw i8, ptr %0, i64 232
  %10 = load ptr, ptr %9, align 8
  %.not42 = icmp eq ptr %10, null
  br i1 %.not42, label %_add_env2.exit, label %11

11:                                               ; preds = %8
  call void (ptr, ptr, ...) @slurm_xstrfmtcat(ptr noundef nonnull %4, ptr noundef nonnull @.str.36, ptr noundef nonnull @.str, ptr noundef nonnull %7) #12
  %12 = load ptr, ptr %4, align 8
  %13 = load ptr, ptr %9, align 8
  %14 = icmp ne ptr %13, null
  %15 = icmp ne ptr %12, null
  %or.cond.i.i = and i1 %15, %14
  br i1 %or.cond.i.i, label %16, label %_add_env.exit.i

16:                                               ; preds = %11
  %17 = getelementptr inbounds nuw i8, ptr %0, i64 276
  %18 = load i32, ptr %17, align 4
  %19 = add i32 %18, 2
  %20 = zext i32 %19 to i64
  %21 = shl nuw nsw i64 %20, 3
  %22 = call ptr @slurm_xrecalloc(ptr noundef nonnull %9, i64 noundef 1, i64 noundef %21, i1 noundef zeroext true, i1 noundef zeroext false, ptr noundef nonnull @.str.37, i32 noundef 104, ptr noundef nonnull @__func__._add_env) #12
  %23 = call ptr @slurm_xstrdup(ptr noundef nonnull %12) #12
  %24 = load ptr, ptr %9, align 8
  %25 = load i32, ptr %17, align 4
  %26 = zext i32 %25 to i64
  %27 = getelementptr inbounds nuw ptr, ptr %24, i64 %26
  store ptr %23, ptr %27, align 8
  %28 = load i32, ptr %17, align 4
  %29 = add i32 %28, 1
  store i32 %29, ptr %17, align 4
  br label %_add_env.exit.i

_add_env.exit.i:                                  ; preds = %16, %11
  call void @slurm_xfree(ptr noundef nonnull %4) #12
  br label %_add_env2.exit

_add_env2.exit:                                   ; preds = %8, %_add_env.exit.i
  call void @llvm.lifetime.end.p0(i64 8, ptr nonnull %4) #12
  br label %30

30:                                               ; preds = %2, %_add_env2.exit
  %31 = getelementptr inbounds nuw i8, ptr %0, i64 480
  %32 = load ptr, ptr %31, align 8
  %.not33 = icmp eq ptr %32, null
  br i1 %.not33, label %55, label %33

33:                                               ; preds = %30
  call void @llvm.lifetime.start.p0(i64 8, ptr nonnull %3) #12
  store ptr null, ptr %3, align 8
  %34 = getelementptr inbounds nuw i8, ptr %0, i64 232
  %35 = load ptr, ptr %34, align 8
  %.not43 = icmp eq ptr %35, null
  br i1 %.not43, label %_add_env2.exit41, label %36

36:                                               ; preds = %33
  call void (ptr, ptr, ...) @slurm_xstrfmtcat(ptr noundef nonnull %3, ptr noundef nonnull @.str.36, ptr noundef nonnull @.str.1, ptr noundef nonnull %32) #12
  %37 = load ptr, ptr %3, align 8
  %38 = load ptr, ptr %34, align 8
  %39 = icmp ne ptr %38, null
  %40 = icmp ne ptr %37, null
  %or.cond.i.i39 = and i1 %40, %39
  br i1 %or.cond.i.i39, label %41, label %_add_env.exit.i40

41:                                               ; preds = %36
  %42 = getelementptr inbounds nuw i8, ptr %0, i64 276
  %43 = load i32, ptr %42, align 4
  %44 = add i32 %43, 2
  %45 = zext i32 %44 to i64
  %46 = shl nuw nsw i64 %45, 3
  %47 = call ptr @slurm_xrecalloc(ptr noundef nonnull %34, i64 noundef 1, i64 noundef %46, i1 noundef zeroext true, i1 noundef zeroext false, ptr noundef nonnull @.str.37, i32 noundef 104, ptr noundef nonnull @__func__._add_env) #12
  %48 = call ptr @slurm_xstrdup(ptr noundef nonnull %37) #12
  %49 = load ptr, ptr %34, align 8
  %50 = load i32, ptr %42, align 4
  %51 = zext i32 %50 to i64
  %52 = getelementptr inbounds nuw ptr, ptr %49, i64 %51
  store ptr %48, ptr %52, align 8
  %53 = load i32, ptr %42, align 4
  %54 = add i32 %53, 1
  store i32 %54, ptr %42, align 4
  br label %_add_env.exit.i40

_add_env.exit.i40:                                ; preds = %41, %36
  call void @slurm_xfree(ptr noundef nonnull %3) #12
  br label %_add_env2.exit41

_add_env2.exit41:                                 ; preds = %33, %_add_env.exit.i40
  call void @llvm.lifetime.end.p0(i64 8, ptr nonnull %3) #12
  br label %55

55:                                               ; preds = %_add_env2.exit41, %30
  %56 = getelementptr inbounds nuw i8, ptr %0, i64 848
  %57 = load ptr, ptr %56, align 8
  %.not34 = icmp eq ptr %57, null
  %.str.2. = select i1 %.not34, ptr @.str.2, ptr %57
  %58 = getelementptr inbounds nuw i8, ptr %0, i64 120
  %59 = load ptr, ptr %58, align 8
  %.not35 = icmp eq ptr %59, null
  br i1 %.not35, label %61, label %60

60:                                               ; preds = %55
  call void @slurm_xstrcat(ptr noundef nonnull %58, ptr noundef nonnull @.str.3) #12
  br label %61

61:                                               ; preds = %60, %55
  call void @slurm_xstrcat(ptr noundef nonnull %58, ptr noundef nonnull @.str.4) #12
  %62 = load i8, ptr %.str.2., align 1
  %.not36 = icmp eq i8 %62, 47
  br i1 %.not36, label %67, label %63

63:                                               ; preds = %61
  %64 = getelementptr inbounds nuw i8, ptr %0, i64 736
  %65 = load ptr, ptr %64, align 8
  %.not37 = icmp eq ptr %65, null
  br i1 %.not37, label %67, label %66

66:                                               ; preds = %63
  call void @slurm_xstrcat(ptr noundef nonnull %58, ptr noundef nonnull %65) #12
  call void @slurm_xstrcat(ptr noundef nonnull %58, ptr noundef nonnull @.str.5) #12
  br label %67

67:                                               ; preds = %66, %63, %61
  %68 = call ptr @strstr(ptr noundef nonnull dereferenceable(1) %.str.2., ptr noundef nonnull dereferenceable(1) @.str.6) #13
  %.not38 = icmp eq ptr %68, null
  br i1 %.not38, label %74, label %69

69:                                               ; preds = %67
  call void @llvm.lifetime.start.p0(i64 8, ptr nonnull %5) #12
  %70 = call ptr @slurm_xstrdup(ptr noundef nonnull %.str.2.) #12
  store ptr %70, ptr %5, align 8
  %71 = call ptr @strstr(ptr noundef nonnull dereferenceable(1) %70, ptr noundef nonnull dereferenceable(1) @.str.6) #13
  store i8 0, ptr %71, align 1
  call void (ptr, ptr, ...) @slurm_xstrfmtcat(ptr noundef nonnull %5, ptr noundef nonnull @.str.7, i32 noundef %6) #12
  %72 = getelementptr inbounds nuw i8, ptr %68, i64 2
  call void @slurm_xstrcat(ptr noundef nonnull %5, ptr noundef nonnull %72) #12
  %73 = load ptr, ptr %5, align 8
  call void @slurm_xstrcat(ptr noundef nonnull %58, ptr noundef %73) #12
  call void @slurm_xfree(ptr noundef nonnull %5) #12
  call void @llvm.lifetime.end.p0(i64 8, ptr nonnull %5) #12
  br label %75

74:                                               ; preds = %67
  call void @slurm_xstrcat(ptr noundef nonnull %58, ptr noundef nonnull %.str.2.) #12
  br label %75

75:                                               ; preds = %74, %69
  ret i32 0
}